(dp0
S'reactDict'
p1
(lp2
sS'channelDict'
p3
(lp4
(dp5
S'channel_member'
p6
(lp7
sS'name'
p8
Vchannel_1
p9
sS'standlist'
p10
S''
p11
sS'channel_id'
p12
I1
sS'channel_creater'
p13
I2
sS'is_public'
p14
VTrue
p15
sS'standUp'
p16
I0
sS'channel_owner'
p17
(lp18
I2
asasS'messDict'
p19
(lp20
sS'messID'
p21
I0
sS'userDict'
p22
(lp23
(dp24
S'first_name'
p25
Vtim
p26
sS'last_name'
p27
Vlu
p28
sS'handle'
p29
Vtimlu
p30
sS'permission_id'
p31
I1
sS'reset_code'
p32
NsS'online'
p33
I01
sS'u_id'
p34
I1
sS'password'
p35
S'5994471abb01112afcc18159f6cc74b4f511b99806da59b3caf5a9c173cacfc5'
p36
sS'email'
p37
Vlhd1235@gmail.com
p38
sa(dp39
S'first_name'
p40
Vtim
p41
sS'last_name'
p42
Vlu
p43
sS'handle'
p44
V001lu
p45
sS'permission_id'
p46
I3
sS'email'
p47
Vlhd12@gmail.com
p48
sS'password'
p49
S'5994471abb01112afcc18159f6cc74b4f511b99806da59b3caf5a9c173cacfc5'
p50
sS'online'
p51
I01
sS'u_id'
p52
I2
sS'reset_code'
p53
Nsa(dp54
S'first_name'
p55
Vtim
p56
sS'last_name'
p57
Vlu
p58
sS'handle'
p59
V002lu
p60
sS'online'
p61
I01
sS'password'
p62
S'5994471abb01112afcc18159f6cc74b4f511b99806da59b3caf5a9c173cacfc5'
p63
sS'permission_id'
p64
I3
sS'u_id'
p65
I3
sS'email'
p66
Vlhd12542@gmail.com
p67
sS'reset_code'
p68
Nsas.